; Function Attrs: mustprogress nofree norecurse nosync nounwind willreturn memory(argmem: readwrite) uwtable
define internal fastcc void @_ZN5ImStbL25stb_textedit_move_to_lastEP19ImGuiInputTextStatePNS_17STB_TexteditStateE(ptr noundef nonnull readonly captures(none) %0, ptr noundef captures(none) %1) unnamed_addr #15 {
  %3 = getelementptr inbounds nuw i8, ptr %1, i64 4
  %4 = load i32, ptr %3, align 4, !tbaa !387
  %5 = getelementptr inbounds nuw i8, ptr %1, i64 8
  %6 = load i32, ptr %5, align 4, !tbaa !388
  %.not = icmp eq i32 %4, %6
  br i1 %.not, label %22, label %7

7:                                                ; preds = %2
  %8 = icmp slt i32 %6, %4
  br i1 %8, label %9, label %10

9:                                                ; preds = %7
  store i32 %4, ptr %5, align 4, !tbaa !388
  br label %10

10:                                               ; preds = %9, %7
  %11 = phi i32 [ %6, %7 ], [ %4, %9 ]
  %12 = phi i32 [ %4, %7 ], [ %6, %9 ]
  %13 = getelementptr i8, ptr %0, i64 20
  %.val = load i32, ptr %13, align 4, !tbaa !384
  %spec.select = tail call i32 @llvm.smin.i32(i32 %12, i32 %.val)
  %14 = icmp sgt i32 %11, %.val
  br i1 %14, label %15, label %16

15:                                               ; preds = %10
  store i32 %.val, ptr %5, align 4, !tbaa !388
  br label %16

16:                                               ; preds = %15, %10
  %17 = phi i32 [ %.val, %15 ], [ %11, %10 ]
  %18 = icmp eq i32 %spec.select, %17
  br i1 %18, label %19, label %_ZN5ImStbL18stb_textedit_clampEP19ImGuiInputTextStatePNS_17STB_TexteditStateE.exit

19:                                               ; preds = %16
  store i32 %spec.select, ptr %1, align 4, !tbaa !386
  br label %_ZN5ImStbL18stb_textedit_clampEP19ImGuiInputTextStatePNS_17STB_TexteditStateE.exit

_ZN5ImStbL18stb_textedit_clampEP19ImGuiInputTextStatePNS_17STB_TexteditStateE.exit: ; preds = %19, %16
  %20 = phi i32 [ %spec.select, %19 ], [ %17, %16 ]
  store i32 %20, ptr %1, align 4, !tbaa !386
  store i32 %20, ptr %3, align 4, !tbaa !387
  %21 = getelementptr inbounds nuw i8, ptr %1, i64 22
  store i8 0, ptr %21, align 2, !tbaa !393
  br label %22

22:                                               ; preds = %_ZN5ImStbL18stb_textedit_clampEP19ImGuiInputTextStatePNS_17STB_TexteditStateE.exit, %2
  ret void
}